target datalayout = "e-m:e-p270:32:32-p271:32:32-p272:64:64-i64:64-i128:128-f80:128-n8:16:32:64-S128"
target triple = "x86_64-unknown-linux-gnu"

%struct.list_head = type { ptr, ptr }

; Function Attrs: fn_ret_thunk_extern mustprogress nofree norecurse nosync nounwind null_pointer_is_valid willreturn memory(argmem: readwrite)
define dso_local void @drm_mode_get_hv_timing(ptr nocapture noundef readonly %0, ptr nocapture noundef writeonly %1, ptr nocapture noundef writeonly %2) #6 align 16 {
  %4 = alloca %struct.list_head, align 8
  %5 = alloca [22 x i8], align 2
  call void @llvm.lifetime.start.p0(i64 22, ptr nonnull %5)
  call void @llvm.memset.p0.i64(ptr noundef nonnull align 2 dereferenceable(22) %5, i8 0, i64 22, i1 false)
  call void @llvm.lifetime.start.p0(i64 16, ptr nonnull %4)
  %6 = getelementptr inbounds i8, ptr %5, i64 6
  call void @llvm.memcpy.p0.p0.i64(ptr noundef nonnull align 8 dereferenceable(16) %4, ptr noundef align 2 dereferenceable(16) %6, i64 16, i1 false)
  %7 = getelementptr inbounds i8, ptr %0, i64 4
  %8 = load i16, ptr %7, align 4
  %9 = getelementptr inbounds i8, ptr %0, i64 14
  %10 = load i16, ptr %9, align 2
  %11 = getelementptr inbounds i8, ptr %0, i64 20
  %12 = load i16, ptr %11, align 4
  %13 = getelementptr inbounds i8, ptr %0, i64 24
  %14 = load i32, ptr %13, align 8
  %15 = getelementptr inbounds i8, ptr %0, i64 58
  call void @llvm.memcpy.p0.p0.i64(ptr noundef nonnull align 2 dereferenceable(22) %5, ptr noundef align 2 dereferenceable(22) %15, i64 22, i1 false)
  call void @llvm.memcpy.p0.p0.i64(ptr noundef align 2 dereferenceable(16) %6, ptr noundef nonnull align 8 dereferenceable(16) %4, i64 16, i1 false)
  call void @llvm.lifetime.end.p0(i64 16, ptr nonnull %4)
  %16 = and i32 %14, 507904
  %17 = icmp eq i32 %16, 16384
  %18 = select i1 %17, i16 %12, i16 0
  %19 = add i16 %10, %18
  %20 = zext i16 %8 to i32
  store i32 %20, ptr %1, align 4
  %21 = zext i16 %19 to i32
  store i32 %21, ptr %2, align 4
  call void @llvm.lifetime.end.p0(i64 22, ptr nonnull %5)
  ret void
}