; Function Attrs: fn_ret_thunk_extern mustprogress nofree norecurse nosync nounwind null_pointer_is_valid willreturn memory(argmem: readwrite)
define dso_local void @drm_mode_get_hv_timing(ptr nocapture noundef readonly %0, ptr nocapture noundef writeonly %1, ptr nocapture noundef writeonly %2) #6 align 16 {
  %4 = getelementptr inbounds i8, ptr %0, i64 4
  %5 = load i16, ptr %4, align 4
  %6 = getelementptr inbounds i8, ptr %0, i64 14
  %7 = load i16, ptr %6, align 2
  %8 = getelementptr inbounds i8, ptr %0, i64 20
  %9 = load i16, ptr %8, align 4
  %10 = getelementptr inbounds i8, ptr %0, i64 24
  %11 = load i32, ptr %10, align 8
  %12 = and i32 %11, 507904
  %13 = icmp eq i32 %12, 16384
  %14 = select i1 %13, i16 %9, i16 0
  %15 = add i16 %14, %7
  %16 = zext i16 %5 to i32
  store i32 %16, ptr %1, align 4
  %17 = zext i16 %15 to i32
  store i32 %17, ptr %2, align 4
  ret void
}